; Function Attrs: mustprogress nofree norecurse nosync nounwind willreturn memory(argmem: write) uwtable
define hidden void @_ZN5boost9container3pmr13pool_resourceC2EPNS1_15memory_resourceE(ptr noundef nonnull align 8 dereferenceable(56) %0, ptr noundef %1) unnamed_addr #8 align 2 personality ptr @__gxx_personality_v0 {
  %3 = getelementptr inbounds nuw i8, ptr %0, i64 16
  store ptr %1, ptr %3, align 8, !tbaa !26
  %4 = getelementptr inbounds nuw i8, ptr %0, i64 24
  store ptr %4, ptr %4, align 8, !tbaa !27
  %5 = getelementptr inbounds nuw i8, ptr %0, i64 32
  store ptr %4, ptr %5, align 8, !tbaa !28
  %6 = getelementptr inbounds nuw i8, ptr %0, i64 40
  tail call void @llvm.memset.p0.i64(ptr noundef nonnull align 8 dereferenceable(16) %6, i8 0, i64 16, i1 false)
  store i64 32, ptr %0, align 8, !tbaa !3
  %7 = getelementptr inbounds nuw i8, ptr %0, i64 8
  store i64 4096, ptr %7, align 8, !tbaa !7
  ret void
}